; Function Attrs: mustprogress nounwind uwtable
define hidden noundef zeroext i1 @_ZN33G1SecondaryConcurrentRefineThread26wait_for_completed_buffersEv(ptr noundef nonnull align 8 dereferenceable(1104) %0) unnamed_addr #0 align 2 {
  %2 = getelementptr inbounds i8, ptr %0, i64 936
  tail call void @_ZN5Mutex28lock_without_safepoint_checkEv(ptr noundef nonnull align 8 dereferenceable(104) %2) #9
  %3 = getelementptr inbounds i8, ptr %0, i64 1040
  %4 = load i8, ptr %3, align 8
  %5 = trunc i8 %4 to i1
  br i1 %5, label %_ZN13MonitorLockerD2Ev.exit, label %.lr.ph

.lr.ph:                                           ; preds = %1, %_ZN13MonitorLocker4waitEl.exit
  %6 = tail call noundef zeroext i1 @_ZNK18ConcurrentGCThread16should_terminateEv(ptr noundef nonnull align 8 dereferenceable(918) %0) #9
  br i1 %6, label %_ZN13MonitorLockerD2Ev.exit, label %_ZN13MonitorLocker4waitEl.exit

_ZN13MonitorLocker4waitEl.exit:                   ; preds = %.lr.ph
  %7 = tail call noundef zeroext i1 @_ZN7Monitor28wait_without_safepoint_checkEm(ptr noundef nonnull align 8 dereferenceable(104) %2, i64 noundef 0) #9
  %8 = load i8, ptr %3, align 8
  %9 = trunc i8 %8 to i1
  br i1 %9, label %_ZN13MonitorLockerD2Ev.exit, label %.lr.ph, !llvm.loop !15

_ZN13MonitorLockerD2Ev.exit:                      ; preds = %.lr.ph, %_ZN13MonitorLocker4waitEl.exit, %1
  %10 = tail call noundef zeroext i1 @_ZNK18ConcurrentGCThread16should_terminateEv(ptr noundef nonnull align 8 dereferenceable(918) %0) #9
  %11 = xor i1 %10, true
  tail call void @_ZN5Mutex6unlockEv(ptr noundef nonnull align 8 dereferenceable(104) %2) #9
  ret i1 %11
}